; Function Attrs: mustprogress uwtable
define void @_ZN5arrow2io16HadoopFileSystem5ChownERKNSt7__cxx1112basic_stringIcSt11char_traitsIcESaIcEEEPKcSB_(ptr noalias sret(%"class.arrow::Status") align 8 %agg.result, ptr nocapture noundef nonnull readonly align 8 dereferenceable(16) %this, ptr noundef nonnull align 8 dereferenceable(32) %path, ptr noundef %owner, ptr noundef %group) local_unnamed_addr #0 align 2 {
entry:
  %impl_ = getelementptr inbounds i8, ptr %this, i64 8
  %0 = load ptr, ptr %impl_, align 8
  tail call void @llvm.experimental.noalias.scope.decl(metadata !330)
  %1 = load ptr, ptr %0, align 8, !noalias !330
  %fs_.i = getelementptr inbounds i8, ptr %0, i64 112
  %2 = load ptr, ptr %fs_.i, align 8, !noalias !330
  %call.i = tail call noundef ptr @_ZNKSt7__cxx1112basic_stringIcSt11char_traitsIcESaIcEE5c_strEv(ptr noundef nonnull align 8 dereferenceable(32) %path) #21, !noalias !330
  %call2.i = tail call noundef i32 @_ZN5arrow2io8internal11LibHdfsShim5ChownEP13hdfs_internalPKcS6_S6_(ptr noundef nonnull align 8 dereferenceable(312) %1, ptr noundef %2, ptr noundef %call.i, ptr noundef %owner, ptr noundef %group), !noalias !330
  %cmp.i = icmp eq i32 %call2.i, -1
  br i1 %cmp.i, label %if.then.i, label %do.end.i

if.then.i:                                        ; preds = %entry
  %call3.i = tail call ptr @__errno_location() #23
  %3 = load i32, ptr %call3.i, align 4, !noalias !330
  tail call void @_ZN5arrow8internal15StatusFromErrnoIJRA6_KcS4_RA8_S2_EEENS_6StatusEiNS_10StatusCodeEDpOT_(ptr sret(%"class.arrow::Status") align 8 %agg.result, i32 noundef %3, i8 noundef signext 5, ptr noundef nonnull align 1 dereferenceable(6) @.str.2, ptr noundef nonnull align 1 dereferenceable(6) @.str.27, ptr noundef nonnull align 1 dereferenceable(8) @.str.4)
  br label %_ZN5arrow2io16HadoopFileSystem20HadoopFileSystemImpl5ChownERKNSt7__cxx1112basic_stringIcSt11char_traitsIcESaIcEEEPKcSC_.exit

do.end.i:                                         ; preds = %entry
  store ptr null, ptr %agg.result, align 8, !alias.scope !333
  br label %_ZN5arrow2io16HadoopFileSystem20HadoopFileSystemImpl5ChownERKNSt7__cxx1112basic_stringIcSt11char_traitsIcESaIcEEEPKcSC_.exit

_ZN5arrow2io16HadoopFileSystem20HadoopFileSystemImpl5ChownERKNSt7__cxx1112basic_stringIcSt11char_traitsIcESaIcEEEPKcSC_.exit: ; preds = %if.then.i, %do.end.i
  ret void
}